; ModuleID = '9/1628.c'
source_filename = "9/1628.c"
target datalayout = "e-m:e-p270:32:32-p271:32:32-p272:64:64-i64:64-f80:128-n8:16:32:64-S128"
target triple = "x86_64-pc-linux-gnu"

%struct.patient = type { [20 x i8], i32 }

@.str = private unnamed_addr constant [3 x i8] c"%d\00", align 1
@.str.1 = private unnamed_addr constant [5 x i8] c"%s%d\00", align 1
@.str.2 = private unnamed_addr constant [4 x i8] c"%s\0A\00", align 1

; Function Attrs: noinline nounwind uwtable
define dso_local i32 @main() #0 {
  %1 = alloca i32, align 4
  %2 = alloca i32, align 4
  %3 = alloca i32, align 4
  %4 = alloca i32, align 4
  %5 = alloca i32, align 4
  %6 = alloca i32, align 4
  %7 = alloca [110 x %struct.patient], align 16
  %8 = alloca %struct.patient, align 4
  store i32 0, i32* %1, align 4
  store i32 0, i32* %6, align 4
  %9 = call i32 (i8*, ...) @__isoc99_scanf(i8* getelementptr inbounds ([3 x i8], [3 x i8]* @.str, i64 0, i64 0), i32* %3)
  store i32 0, i32* %2, align 4
  br label %10

10:                                               ; preds = %25, %0
  %11 = load i32, i32* %2, align 4
  %12 = load i32, i32* %3, align 4
  %13 = icmp slt i32 %11, %12
  br i1 %13, label %14, label %28

14:                                               ; preds = %10
  %15 = load i32, i32* %2, align 4
  %16 = sext i32 %15 to i64
  %17 = getelementptr inbounds [110 x %struct.patient], [110 x %struct.patient]* %7, i64 0, i64 %16
  %18 = getelementptr inbounds %struct.patient, %struct.patient* %17, i32 0, i32 0
  %19 = getelementptr inbounds [20 x i8], [20 x i8]* %18, i64 0, i64 0
  %20 = load i32, i32* %2, align 4
  %21 = sext i32 %20 to i64
  %22 = getelementptr inbounds [110 x %struct.patient], [110 x %struct.patient]* %7, i64 0, i64 %21
  %23 = getelementptr inbounds %struct.patient, %struct.patient* %22, i32 0, i32 1
  %24 = call i32 (i8*, ...) @__isoc99_scanf(i8* getelementptr inbounds ([5 x i8], [5 x i8]* @.str.1, i64 0, i64 0), i8* %19, i32* %23)
  br label %25

25:                                               ; preds = %14
  %26 = load i32, i32* %2, align 4
  %27 = add nsw i32 %26, 1
  store i32 %27, i32* %2, align 4
  br label %10

28:                                               ; preds = %10
  store i32 0, i32* %2, align 4
  br label %29

29:                                               ; preds = %44, %28
  %30 = load i32, i32* %2, align 4
  %31 = load i32, i32* %3, align 4
  %32 = icmp slt i32 %30, %31
  br i1 %32, label %33, label %47

33:                                               ; preds = %29
  %34 = load i32, i32* %2, align 4
  %35 = sext i32 %34 to i64
  %36 = getelementptr inbounds [110 x %struct.patient], [110 x %struct.patient]* %7, i64 0, i64 %35
  %37 = getelementptr inbounds %struct.patient, %struct.patient* %36, i32 0, i32 1
  %38 = load i32, i32* %37, align 4
  %39 = icmp sge i32 %38, 60
  br i1 %39, label %40, label %43

40:                                               ; preds = %33
  %41 = load i32, i32* %6, align 4
  %42 = add nsw i32 %41, 1
  store i32 %42, i32* %6, align 4
  br label %43

43:                                               ; preds = %40, %33
  br label %44

44:                                               ; preds = %43
  %45 = load i32, i32* %2, align 4
  %46 = add nsw i32 %45, 1
  store i32 %46, i32* %2, align 4
  br label %29

47:                                               ; preds = %29
  store i32 0, i32* %2, align 4
  br label %48

48:                                               ; preds = %107, %47
  %49 = load i32, i32* %2, align 4
  %50 = load i32, i32* %6, align 4
  %51 = icmp slt i32 %49, %50
  br i1 %51, label %52, label %110

52:                                               ; preds = %48
  %53 = load i32, i32* %2, align 4
  store i32 %53, i32* %5, align 4
  %54 = load i32, i32* %2, align 4
  store i32 %54, i32* %4, align 4
  br label %55

55:                                               ; preds = %74, %52
  %56 = load i32, i32* %4, align 4
  %57 = load i32, i32* %3, align 4
  %58 = icmp slt i32 %56, %57
  br i1 %58, label %59, label %77

59:                                               ; preds = %55
  %60 = load i32, i32* %4, align 4
  %61 = sext i32 %60 to i64
  %62 = getelementptr inbounds [110 x %struct.patient], [110 x %struct.patient]* %7, i64 0, i64 %61
  %63 = getelementptr inbounds %struct.patient, %struct.patient* %62, i32 0, i32 1
  %64 = load i32, i32* %63, align 4
  %65 = load i32, i32* %5, align 4
  %66 = sext i32 %65 to i64
  %67 = getelementptr inbounds [110 x %struct.patient], [110 x %struct.patient]* %7, i64 0, i64 %66
  %68 = getelementptr inbounds %struct.patient, %struct.patient* %67, i32 0, i32 1
  %69 = load i32, i32* %68, align 4
  %70 = icmp sgt i32 %64, %69
  br i1 %70, label %71, label %73

71:                                               ; preds = %59
  %72 = load i32, i32* %4, align 4
  store i32 %72, i32* %5, align 4
  br label %73

73:                                               ; preds = %71, %59
  br label %74

74:                                               ; preds = %73
  %75 = load i32, i32* %4, align 4
  %76 = add nsw i32 %75, 1
  store i32 %76, i32* %4, align 4
  br label %55

77:                                               ; preds = %55
  %78 = load i32, i32* %5, align 4
  %79 = sext i32 %78 to i64
  %80 = getelementptr inbounds [110 x %struct.patient], [110 x %struct.patient]* %7, i64 0, i64 %79
  %81 = bitcast %struct.patient* %8 to i8*
  %82 = bitcast %struct.patient* %80 to i8*
  call void @llvm.memcpy.p0i8.p0i8.i64(i8* align 4 %81, i8* align 8 %82, i64 24, i1 false)
  %83 = load i32, i32* %5, align 4
  store i32 %83, i32* %4, align 4
  br label %84

84:                                               ; preds = %98, %77
  %85 = load i32, i32* %4, align 4
  %86 = load i32, i32* %2, align 4
  %87 = icmp sgt i32 %85, %86
  br i1 %87, label %88, label %101

88:                                               ; preds = %84
  %89 = load i32, i32* %4, align 4
  %90 = sext i32 %89 to i64
  %91 = getelementptr inbounds [110 x %struct.patient], [110 x %struct.patient]* %7, i64 0, i64 %90
  %92 = load i32, i32* %4, align 4
  %93 = sub nsw i32 %92, 1
  %94 = sext i32 %93 to i64
  %95 = getelementptr inbounds [110 x %struct.patient], [110 x %struct.patient]* %7, i64 0, i64 %94
  %96 = bitcast %struct.patient* %91 to i8*
  %97 = bitcast %struct.patient* %95 to i8*
  call void @llvm.memcpy.p0i8.p0i8.i64(i8* align 8 %96, i8* align 8 %97, i64 24, i1 false)
  br label %98

98:                                               ; preds = %88
  %99 = load i32, i32* %4, align 4
  %100 = add nsw i32 %99, -1
  store i32 %100, i32* %4, align 4
  br label %84

101:                                              ; preds = %84
  %102 = load i32, i32* %2, align 4
  %103 = sext i32 %102 to i64
  %104 = getelementptr inbounds [110 x %struct.patient], [110 x %struct.patient]* %7, i64 0, i64 %103
  %105 = bitcast %struct.patient* %104 to i8*
  %106 = bitcast %struct.patient* %8 to i8*
  call void @llvm.memcpy.p0i8.p0i8.i64(i8* align 8 %105, i8* align 4 %106, i64 24, i1 false)
  br label %107

107:                                              ; preds = %101
  %108 = load i32, i32* %2, align 4
  %109 = add nsw i32 %108, 1
  store i32 %109, i32* %2, align 4
  br label %48

110:                                              ; preds = %48
  store i32 0, i32* %2, align 4
  br label %111

111:                                              ; preds = %122, %110
  %112 = load i32, i32* %2, align 4
  %113 = load i32, i32* %3, align 4
  %114 = icmp slt i32 %112, %113
  br i1 %114, label %115, label %125

115:                                              ; preds = %111
  %116 = load i32, i32* %2, align 4
  %117 = sext i32 %116 to i64
  %118 = getelementptr inbounds [110 x %struct.patient], [110 x %struct.patient]* %7, i64 0, i64 %117
  %119 = getelementptr inbounds %struct.patient, %struct.patient* %118, i32 0, i32 0
  %120 = getelementptr inbounds [20 x i8], [20 x i8]* %119, i64 0, i64 0
  %121 = call i32 (i8*, ...) @printf(i8* getelementptr inbounds ([4 x i8], [4 x i8]* @.str.2, i64 0, i64 0), i8* %120)
  br label %122

122:                                              ; preds = %115
  %123 = load i32, i32* %2, align 4
  %124 = add nsw i32 %123, 1
  store i32 %124, i32* %2, align 4
  br label %111

125:                                              ; preds = %111
  ret i32 0
}

declare dso_local i32 @__isoc99_scanf(i8*, ...) #1

; Function Attrs: argmemonly nounwind willreturn
declare void @llvm.memcpy.p0i8.p0i8.i64(i8* noalias nocapture writeonly, i8* noalias nocapture readonly, i64, i1 immarg) #2

declare dso_local i32 @printf(i8*, ...) #1


!llvm.module.flags = !{!0}
!llvm.ident = !{!1}

!0 = !{i32 1, !"wchar_size", i32 4}
!1 = !{!"clang version 10.0.0-4ubuntu1 "}
